target datalayout = "e-m:e-p270:32:32-p271:32:32-p272:64:64-i64:64-i128:128-f80:128-n8:16:32:64-S128"
target triple = "x86_64-pc-linux-gnu"

%"class.icu_77::MessagePattern" = type <{ %"class.icu_77::UObject", i32, [4 x i8], %"class.icu_77::UnicodeString", ptr, ptr, i32, [4 x i8], ptr, ptr, i32, i8, i8, i8, i8 }>
%"class.icu_77::UObject" = type { ptr }
%"class.icu_77::UnicodeString" = type { %"class.icu_77::Replaceable", %"union.icu_77::UnicodeString::StackBufferOrFields" }
%"class.icu_77::Replaceable" = type { %"class.icu_77::UObject" }
%"union.icu_77::UnicodeString::StackBufferOrFields" = type { %struct.anon.0, [32 x i8] }
%struct.anon.0 = type { i16, i32, i32, ptr }
%struct.anon = type { i16, [27 x i16] }

; Function Attrs: inlinehint mustprogress nounwind uwtable
define linkonce_odr noundef i32 @_ZNK6icu_7713UnicodeString14getShortLengthEv(ptr noundef nonnull align 8 dereferenceable(64) %0) #1 comdat align 2 {
  %2 = alloca ptr, align 8
  store ptr %0, ptr %2, align 8, !tbaa !33
  %3 = load ptr, ptr %2, align 8
  %4 = getelementptr inbounds nuw %"class.icu_77::UnicodeString", ptr %3, i32 0, i32 1
  %5 = getelementptr inbounds nuw %struct.anon.0, ptr %4, i32 0, i32 0
  %6 = load i16, ptr %5, align 8, !tbaa !35
  %7 = sext i16 %6 to i32
  %8 = ashr i32 %7, 5
  ret i32 %8
}

; Function Attrs: inlinehint mustprogress nounwind uwtable
define linkonce_odr noundef signext i8 @_ZNK6icu_7713UnicodeString14hasShortLengthEv(ptr noundef nonnull align 8 dereferenceable(64) %0) #1 comdat align 2 {
  %2 = alloca ptr, align 8
  store ptr %0, ptr %2, align 8, !tbaa !33
  %3 = load ptr, ptr %2, align 8
  %4 = getelementptr inbounds nuw %"class.icu_77::UnicodeString", ptr %3, i32 0, i32 1
  %5 = getelementptr inbounds nuw %struct.anon.0, ptr %4, i32 0, i32 0
  %6 = load i16, ptr %5, align 8, !tbaa !35
  %7 = sext i16 %6 to i32
  %8 = icmp sge i32 %7, 0
  %9 = zext i1 %8 to i8
  ret i8 %9
}

; Function Attrs: inlinehint mustprogress nounwind uwtable
define linkonce_odr noundef ptr @_ZNK6icu_7713UnicodeString13getArrayStartEv(ptr noundef nonnull align 8 dereferenceable(64) %0) #1 comdat align 2 {
  %2 = alloca ptr, align 8
  store ptr %0, ptr %2, align 8, !tbaa !33
  %3 = load ptr, ptr %2, align 8
  %4 = getelementptr inbounds nuw %"class.icu_77::UnicodeString", ptr %3, i32 0, i32 1
  %5 = getelementptr inbounds nuw %struct.anon.0, ptr %4, i32 0, i32 0
  %6 = load i16, ptr %5, align 8, !tbaa !35
  %7 = sext i16 %6 to i32
  %8 = and i32 %7, 2
  %9 = icmp ne i32 %8, 0
  br i1 %9, label %10, label %14

10:                                               ; preds = %1
  %11 = getelementptr inbounds nuw %"class.icu_77::UnicodeString", ptr %3, i32 0, i32 1
  %12 = getelementptr inbounds nuw %struct.anon, ptr %11, i32 0, i32 1
  %13 = getelementptr inbounds [27 x i16], ptr %12, i64 0, i64 0
  br label %18

14:                                               ; preds = %1
  %15 = getelementptr inbounds nuw %"class.icu_77::UnicodeString", ptr %3, i32 0, i32 1
  %16 = getelementptr inbounds nuw %struct.anon.0, ptr %15, i32 0, i32 3
  %17 = load ptr, ptr %16, align 8, !tbaa !35
  br label %18

18:                                               ; preds = %14, %10
  %19 = phi ptr [ %13, %10 ], [ %17, %14 ]
  ret ptr %19
}

; Function Attrs: inlinehint mustprogress uwtable
define linkonce_odr noundef i32 @_ZNK6icu_7713UnicodeString6lengthEv(ptr noundef nonnull align 8 dereferenceable(64) %0) #2 comdat align 2 {
  %2 = alloca ptr, align 8
  store ptr %0, ptr %2, align 8, !tbaa !33
  %3 = load ptr, ptr %2, align 8
  %4 = call noundef signext i8 @_ZNK6icu_7713UnicodeString14hasShortLengthEv(ptr noundef nonnull align 8 dereferenceable(64) %3)
  %5 = icmp ne i8 %4, 0
  br i1 %5, label %6, label %8

6:                                                ; preds = %1
  %7 = call noundef i32 @_ZNK6icu_7713UnicodeString14getShortLengthEv(ptr noundef nonnull align 8 dereferenceable(64) %3)
  br label %12

8:                                                ; preds = %1
  %9 = getelementptr inbounds nuw %"class.icu_77::UnicodeString", ptr %3, i32 0, i32 1
  %10 = getelementptr inbounds nuw %struct.anon.0, ptr %9, i32 0, i32 1
  %11 = load i32, ptr %10, align 4, !tbaa !35
  br label %12

12:                                               ; preds = %8, %6
  %13 = phi i32 [ %7, %6 ], [ %11, %8 ]
  ret i32 %13
}

; Function Attrs: inlinehint mustprogress uwtable
define linkonce_odr noundef zeroext i16 @_ZNK6icu_7713UnicodeString8doCharAtEi(ptr noundef nonnull align 8 dereferenceable(64) %0, i32 noundef %1) #2 comdat align 2 {
  %3 = alloca i16, align 2
  %4 = alloca ptr, align 8
  %5 = alloca i32, align 4
  store ptr %0, ptr %4, align 8, !tbaa !33
  store i32 %1, ptr %5, align 4, !tbaa !48
  %6 = load ptr, ptr %4, align 8
  %7 = load i32, ptr %5, align 4, !tbaa !48
  %8 = call noundef i32 @_ZNK6icu_7713UnicodeString6lengthEv(ptr noundef nonnull align 8 dereferenceable(64) %6)
  %9 = icmp ult i32 %7, %8
  br i1 %9, label %10, label %16

10:                                               ; preds = %2
  %11 = call noundef ptr @_ZNK6icu_7713UnicodeString13getArrayStartEv(ptr noundef nonnull align 8 dereferenceable(64) %6)
  %12 = load i32, ptr %5, align 4, !tbaa !48
  %13 = sext i32 %12 to i64
  %14 = getelementptr inbounds i16, ptr %11, i64 %13
  %15 = load i16, ptr %14, align 2, !tbaa !59
  store i16 %15, ptr %3, align 2
  br label %17

16:                                               ; preds = %2
  store i16 -1, ptr %3, align 2
  br label %17

17:                                               ; preds = %16, %10
  %18 = load i16, ptr %3, align 2
  ret i16 %18
}

; Function Attrs: inlinehint mustprogress uwtable
define linkonce_odr noundef zeroext i16 @_ZNK6icu_7713UnicodeString6charAtEi(ptr noundef nonnull align 8 dereferenceable(64) %0, i32 noundef %1) #2 comdat align 2 {
  %3 = alloca ptr, align 8
  %4 = alloca i32, align 4
  store ptr %0, ptr %3, align 8, !tbaa !33
  store i32 %1, ptr %4, align 4, !tbaa !48
  %5 = load ptr, ptr %3, align 8
  %6 = load i32, ptr %4, align 4, !tbaa !48
  %7 = call noundef zeroext i16 @_ZNK6icu_7713UnicodeString8doCharAtEi(ptr noundef nonnull align 8 dereferenceable(64) %5, i32 noundef %6)
  ret i16 %7
}

; Function Attrs: mustprogress uwtable
define noundef signext i8 @_ZN6icu_7714MessagePattern9isOrdinalEi(ptr noundef nonnull align 8 dereferenceable(127) %0, i32 noundef %1) #0 align 2 {
  %3 = alloca ptr, align 8
  %4 = alloca i32, align 4
  %5 = alloca i16, align 2
  store ptr %0, ptr %3, align 8, !tbaa !3
  store i32 %1, ptr %4, align 4, !tbaa !48
  %6 = load ptr, ptr %3, align 8
  call void @llvm.lifetime.start.p0(i64 2, ptr %5) #12
  %7 = getelementptr inbounds nuw %"class.icu_77::MessagePattern", ptr %6, i32 0, i32 3
  %8 = load i32, ptr %4, align 4, !tbaa !48
  %9 = add nsw i32 %8, 1
  store i32 %9, ptr %4, align 4, !tbaa !48
  %10 = call noundef zeroext i16 @_ZNK6icu_7713UnicodeString6charAtEi(ptr noundef nonnull align 8 dereferenceable(64) %7, i32 noundef %8)
  store i16 %10, ptr %5, align 2, !tbaa !59
  %11 = zext i16 %10 to i32
  %12 = icmp eq i32 %11, 111
  br i1 %12, label %17, label %13

13:                                               ; preds = %2
  %14 = load i16, ptr %5, align 2, !tbaa !59
  %15 = zext i16 %14 to i32
  %16 = icmp eq i32 %15, 79
  br i1 %16, label %17, label %84

17:                                               ; preds = %13, %2
  %18 = getelementptr inbounds nuw %"class.icu_77::MessagePattern", ptr %6, i32 0, i32 3
  %19 = load i32, ptr %4, align 4, !tbaa !48
  %20 = add nsw i32 %19, 1
  store i32 %20, ptr %4, align 4, !tbaa !48
  %21 = call noundef zeroext i16 @_ZNK6icu_7713UnicodeString6charAtEi(ptr noundef nonnull align 8 dereferenceable(64) %18, i32 noundef %19)
  store i16 %21, ptr %5, align 2, !tbaa !59
  %22 = zext i16 %21 to i32
  %23 = icmp eq i32 %22, 114
  br i1 %23, label %28, label %24

24:                                               ; preds = %17
  %25 = load i16, ptr %5, align 2, !tbaa !59
  %26 = zext i16 %25 to i32
  %27 = icmp eq i32 %26, 82
  br i1 %27, label %28, label %84

28:                                               ; preds = %24, %17
  %29 = getelementptr inbounds nuw %"class.icu_77::MessagePattern", ptr %6, i32 0, i32 3
  %30 = load i32, ptr %4, align 4, !tbaa !48
  %31 = add nsw i32 %30, 1
  store i32 %31, ptr %4, align 4, !tbaa !48
  %32 = call noundef zeroext i16 @_ZNK6icu_7713UnicodeString6charAtEi(ptr noundef nonnull align 8 dereferenceable(64) %29, i32 noundef %30)
  store i16 %32, ptr %5, align 2, !tbaa !59
  %33 = zext i16 %32 to i32
  %34 = icmp eq i32 %33, 100
  br i1 %34, label %39, label %35

35:                                               ; preds = %28
  %36 = load i16, ptr %5, align 2, !tbaa !59
  %37 = zext i16 %36 to i32
  %38 = icmp eq i32 %37, 68
  br i1 %38, label %39, label %84

39:                                               ; preds = %35, %28
  %40 = getelementptr inbounds nuw %"class.icu_77::MessagePattern", ptr %6, i32 0, i32 3
  %41 = load i32, ptr %4, align 4, !tbaa !48
  %42 = add nsw i32 %41, 1
  store i32 %42, ptr %4, align 4, !tbaa !48
  %43 = call noundef zeroext i16 @_ZNK6icu_7713UnicodeString6charAtEi(ptr noundef nonnull align 8 dereferenceable(64) %40, i32 noundef %41)
  store i16 %43, ptr %5, align 2, !tbaa !59
  %44 = zext i16 %43 to i32
  %45 = icmp eq i32 %44, 105
  br i1 %45, label %50, label %46

46:                                               ; preds = %39
  %47 = load i16, ptr %5, align 2, !tbaa !59
  %48 = zext i16 %47 to i32
  %49 = icmp eq i32 %48, 73
  br i1 %49, label %50, label %84

50:                                               ; preds = %46, %39
  %51 = getelementptr inbounds nuw %"class.icu_77::MessagePattern", ptr %6, i32 0, i32 3
  %52 = load i32, ptr %4, align 4, !tbaa !48
  %53 = add nsw i32 %52, 1
  store i32 %53, ptr %4, align 4, !tbaa !48
  %54 = call noundef zeroext i16 @_ZNK6icu_7713UnicodeString6charAtEi(ptr noundef nonnull align 8 dereferenceable(64) %51, i32 noundef %52)
  store i16 %54, ptr %5, align 2, !tbaa !59
  %55 = zext i16 %54 to i32
  %56 = icmp eq i32 %55, 110
  br i1 %56, label %61, label %57

57:                                               ; preds = %50
  %58 = load i16, ptr %5, align 2, !tbaa !59
  %59 = zext i16 %58 to i32
  %60 = icmp eq i32 %59, 78
  br i1 %60, label %61, label %84

61:                                               ; preds = %57, %50
  %62 = getelementptr inbounds nuw %"class.icu_77::MessagePattern", ptr %6, i32 0, i32 3
  %63 = load i32, ptr %4, align 4, !tbaa !48
  %64 = add nsw i32 %63, 1
  store i32 %64, ptr %4, align 4, !tbaa !48
  %65 = call noundef zeroext i16 @_ZNK6icu_7713UnicodeString6charAtEi(ptr noundef nonnull align 8 dereferenceable(64) %62, i32 noundef %63)
  store i16 %65, ptr %5, align 2, !tbaa !59
  %66 = zext i16 %65 to i32
  %67 = icmp eq i32 %66, 97
  br i1 %67, label %72, label %68

68:                                               ; preds = %61
  %69 = load i16, ptr %5, align 2, !tbaa !59
  %70 = zext i16 %69 to i32
  %71 = icmp eq i32 %70, 65
  br i1 %71, label %72, label %84

72:                                               ; preds = %68, %61
  %73 = getelementptr inbounds nuw %"class.icu_77::MessagePattern", ptr %6, i32 0, i32 3
  %74 = load i32, ptr %4, align 4, !tbaa !48
  %75 = call noundef zeroext i16 @_ZNK6icu_7713UnicodeString6charAtEi(ptr noundef nonnull align 8 dereferenceable(64) %73, i32 noundef %74)
  store i16 %75, ptr %5, align 2, !tbaa !59
  %76 = zext i16 %75 to i32
  %77 = icmp eq i32 %76, 108
  br i1 %77, label %82, label %78

78:                                               ; preds = %72
  %79 = load i16, ptr %5, align 2, !tbaa !59
  %80 = zext i16 %79 to i32
  %81 = icmp eq i32 %80, 76
  br label %82

82:                                               ; preds = %78, %72
  %83 = phi i1 [ true, %72 ], [ %81, %78 ]
  br label %84

84:                                               ; preds = %82, %68, %57, %46, %35, %24, %13
  %85 = phi i1 [ false, %68 ], [ false, %57 ], [ false, %46 ], [ false, %35 ], [ false, %24 ], [ false, %13 ], [ %83, %82 ]
  %86 = zext i1 %85 to i8
  call void @llvm.lifetime.end.p0(i64 2, ptr %5) #12
  ret i8 %86
}