; Function Attrs: mustprogress nofree norecurse nosync nounwind willreturn memory(read, inaccessiblemem: none) uwtable
define noundef signext range(i8 0, 2) i8 @_ZN6icu_7714MessagePattern9isOrdinalEi(ptr noundef nonnull readonly align 8 captures(none) dereferenceable(127) %0, i32 noundef %1) local_unnamed_addr #8 align 2 {
  %3 = getelementptr inbounds nuw i8, ptr %0, i64 24
  %4 = load i16, ptr %3, align 8, !tbaa !19
  %5 = icmp slt i16 %4, 0
  %6 = ashr i16 %4, 5
  %7 = sext i16 %6 to i32
  %8 = getelementptr inbounds nuw i8, ptr %0, i64 28
  %9 = load i32, ptr %8, align 4
  %10 = select i1 %5, i32 %9, i32 %7
  %11 = icmp ult i32 %1, %10
  br i1 %11, label %_ZNK6icu_7713UnicodeString6charAtEi.exit, label %_ZNK6icu_7713UnicodeString6charAtEi.exit.thread

_ZNK6icu_7713UnicodeString6charAtEi.exit:         ; preds = %2
  %12 = and i16 %4, 2
  %.not.i.i.i = icmp eq i16 %12, 0
  %13 = getelementptr inbounds nuw i8, ptr %0, i64 26
  %14 = getelementptr inbounds nuw i8, ptr %0, i64 40
  %15 = load ptr, ptr %14, align 8
  %16 = select i1 %.not.i.i.i, ptr %15, ptr %13
  %17 = sext i32 %1 to i64
  %18 = getelementptr inbounds i16, ptr %16, i64 %17
  %19 = load i16, ptr %18, align 2, !tbaa !30
  %20 = and i16 %19, -33
  %or.cond = icmp eq i16 %20, 79
  br i1 %or.cond, label %21, label %_ZNK6icu_7713UnicodeString6charAtEi.exit.thread

21:                                               ; preds = %_ZNK6icu_7713UnicodeString6charAtEi.exit
  %22 = add nuw nsw i32 %1, 1
  %23 = icmp ult i32 %22, %10
  br i1 %23, label %_ZNK6icu_7713UnicodeString6charAtEi.exit33, label %_ZNK6icu_7713UnicodeString6charAtEi.exit.thread

_ZNK6icu_7713UnicodeString6charAtEi.exit33:       ; preds = %21
  %24 = sext i32 %22 to i64
  %25 = getelementptr inbounds i16, ptr %16, i64 %24
  %26 = load i16, ptr %25, align 2, !tbaa !30
  %27 = and i16 %26, -33
  %or.cond5 = icmp eq i16 %27, 82
  br i1 %or.cond5, label %28, label %_ZNK6icu_7713UnicodeString6charAtEi.exit.thread

28:                                               ; preds = %_ZNK6icu_7713UnicodeString6charAtEi.exit33
  %29 = add nuw nsw i32 %1, 2
  %30 = icmp ult i32 %29, %10
  br i1 %30, label %_ZNK6icu_7713UnicodeString6charAtEi.exit36, label %_ZNK6icu_7713UnicodeString6charAtEi.exit.thread

_ZNK6icu_7713UnicodeString6charAtEi.exit36:       ; preds = %28
  %31 = sext i32 %29 to i64
  %32 = getelementptr inbounds i16, ptr %16, i64 %31
  %33 = load i16, ptr %32, align 2, !tbaa !30
  %34 = and i16 %33, -33
  %or.cond8 = icmp eq i16 %34, 68
  br i1 %or.cond8, label %35, label %_ZNK6icu_7713UnicodeString6charAtEi.exit.thread

35:                                               ; preds = %_ZNK6icu_7713UnicodeString6charAtEi.exit36
  %36 = add nuw nsw i32 %1, 3
  %37 = icmp ult i32 %36, %10
  br i1 %37, label %_ZNK6icu_7713UnicodeString6charAtEi.exit39, label %_ZNK6icu_7713UnicodeString6charAtEi.exit.thread

_ZNK6icu_7713UnicodeString6charAtEi.exit39:       ; preds = %35
  %38 = sext i32 %36 to i64
  %39 = getelementptr inbounds i16, ptr %16, i64 %38
  %40 = load i16, ptr %39, align 2, !tbaa !30
  %41 = and i16 %40, -33
  %or.cond11 = icmp eq i16 %41, 73
  br i1 %or.cond11, label %42, label %_ZNK6icu_7713UnicodeString6charAtEi.exit.thread

42:                                               ; preds = %_ZNK6icu_7713UnicodeString6charAtEi.exit39
  %43 = add nuw nsw i32 %1, 4
  %44 = icmp ult i32 %43, %10
  br i1 %44, label %_ZNK6icu_7713UnicodeString6charAtEi.exit42, label %_ZNK6icu_7713UnicodeString6charAtEi.exit.thread

_ZNK6icu_7713UnicodeString6charAtEi.exit42:       ; preds = %42
  %45 = sext i32 %43 to i64
  %46 = getelementptr inbounds i16, ptr %16, i64 %45
  %47 = load i16, ptr %46, align 2, !tbaa !30
  %48 = and i16 %47, -33
  %or.cond14 = icmp eq i16 %48, 78
  br i1 %or.cond14, label %49, label %_ZNK6icu_7713UnicodeString6charAtEi.exit.thread

49:                                               ; preds = %_ZNK6icu_7713UnicodeString6charAtEi.exit42
  %50 = add nuw nsw i32 %1, 5
  %51 = icmp ult i32 %50, %10
  br i1 %51, label %_ZNK6icu_7713UnicodeString6charAtEi.exit45, label %_ZNK6icu_7713UnicodeString6charAtEi.exit.thread

_ZNK6icu_7713UnicodeString6charAtEi.exit45:       ; preds = %49
  %52 = sext i32 %50 to i64
  %53 = getelementptr inbounds i16, ptr %16, i64 %52
  %54 = load i16, ptr %53, align 2, !tbaa !30
  %55 = and i16 %54, -33
  %or.cond17 = icmp eq i16 %55, 65
  br i1 %or.cond17, label %56, label %_ZNK6icu_7713UnicodeString6charAtEi.exit.thread

56:                                               ; preds = %_ZNK6icu_7713UnicodeString6charAtEi.exit45
  %57 = add nuw nsw i32 %1, 6
  %58 = icmp ult i32 %57, %10
  br i1 %58, label %59, label %_ZNK6icu_7713UnicodeString6charAtEi.exit.thread

59:                                               ; preds = %56
  %60 = sext i32 %57 to i64
  %61 = getelementptr inbounds i16, ptr %16, i64 %60
  %62 = load i16, ptr %61, align 2, !tbaa !30
  %63 = and i16 %62, -33
  %64 = icmp eq i16 %63, 76
  %65 = zext i1 %64 to i8
  br label %_ZNK6icu_7713UnicodeString6charAtEi.exit.thread

_ZNK6icu_7713UnicodeString6charAtEi.exit.thread:  ; preds = %59, %56, %49, %42, %35, %28, %21, %2, %_ZNK6icu_7713UnicodeString6charAtEi.exit45, %_ZNK6icu_7713UnicodeString6charAtEi.exit42, %_ZNK6icu_7713UnicodeString6charAtEi.exit39, %_ZNK6icu_7713UnicodeString6charAtEi.exit36, %_ZNK6icu_7713UnicodeString6charAtEi.exit33, %_ZNK6icu_7713UnicodeString6charAtEi.exit
  %66 = phi i8 [ 0, %_ZNK6icu_7713UnicodeString6charAtEi.exit ], [ 0, %_ZNK6icu_7713UnicodeString6charAtEi.exit33 ], [ 0, %_ZNK6icu_7713UnicodeString6charAtEi.exit36 ], [ 0, %_ZNK6icu_7713UnicodeString6charAtEi.exit39 ], [ 0, %_ZNK6icu_7713UnicodeString6charAtEi.exit42 ], [ 0, %_ZNK6icu_7713UnicodeString6charAtEi.exit45 ], [ 0, %2 ], [ 0, %21 ], [ 0, %28 ], [ 0, %35 ], [ 0, %42 ], [ 0, %49 ], [ %65, %59 ], [ 0, %56 ]
  ret i8 %66
}